; Function Attrs: mustprogress nofree norecurse nounwind willreturn uwtable
define void @_ZNK19OpenColorIO_v2_5dev6Config12getFileRulesEv(ptr dead_on_unwind noalias writable writeonly sret(%"class.std::shared_ptr.125") align 8 captures(none) initializes((0, 16)) %0, ptr noundef nonnull readonly align 8 captures(none) dereferenceable(8) %1) local_unnamed_addr #16 align 2 personality ptr @__gxx_personality_v0 {
  %3 = load ptr, ptr %1, align 8, !tbaa !34
  %4 = getelementptr inbounds nuw i8, ptr %3, i64 992
  %5 = load ptr, ptr %4, align 8, !tbaa !273
  store ptr %5, ptr %0, align 8, !tbaa !592
  %6 = getelementptr inbounds nuw i8, ptr %0, i64 8
  %7 = getelementptr inbounds nuw i8, ptr %3, i64 1000
  %8 = load ptr, ptr %7, align 8, !tbaa !11
  store ptr %8, ptr %6, align 8, !tbaa !11
  %.not.i.i.i = icmp eq ptr %8, null
  br i1 %.not.i.i.i, label %_ZNSt10shared_ptrIKN19OpenColorIO_v2_5dev9FileRulesEEC2IS1_vEERKS_IT_E.exit, label %9

9:                                                ; preds = %2
  %10 = getelementptr inbounds nuw i8, ptr %8, i64 8
  %11 = load i8, ptr @__libc_single_threaded, align 1, !tbaa !19
  %.not.i.i.i.i = icmp eq i8 %11, 0
  br i1 %.not.i.i.i.i, label %15, label %12

12:                                               ; preds = %9
  %13 = load i32, ptr %10, align 4, !tbaa !20
  %14 = add nsw i32 %13, 1
  store i32 %14, ptr %10, align 4, !tbaa !20
  br label %_ZNSt10shared_ptrIKN19OpenColorIO_v2_5dev9FileRulesEEC2IS1_vEERKS_IT_E.exit

15:                                               ; preds = %9
  %16 = atomicrmw volatile add ptr %10, i32 1 acq_rel, align 4
  br label %_ZNSt10shared_ptrIKN19OpenColorIO_v2_5dev9FileRulesEEC2IS1_vEERKS_IT_E.exit

_ZNSt10shared_ptrIKN19OpenColorIO_v2_5dev9FileRulesEEC2IS1_vEERKS_IT_E.exit: ; preds = %2, %12, %15
  ret void
}